; Function Attrs: mustprogress nofree norecurse nosync nounwind willreturn memory(read, inaccessiblemem: none) uwtable
define dso_local noundef zeroext i1 @_ZN4Luau9isInArenaEPKNS_4TypeERKNS_9TypeArenaE(ptr noundef readnone %0, ptr noundef nonnull readonly align 8 captures(none) dereferenceable(88) %1) local_unnamed_addr #16 {
  %3 = getelementptr inbounds nuw i8, ptr %1, i64 8
  %4 = load ptr, ptr %3, align 8
  %5 = getelementptr inbounds nuw i8, ptr %1, i64 16
  %6 = load ptr, ptr %5, align 8
  %.not17.i = icmp eq ptr %4, %6
  br i1 %.not17.i, label %_ZNK4Luau14TypedAllocatorINS_4TypeEE8containsEPKS1_.exit, label %.lr.ph.i

.lr.ph.i:                                         ; preds = %2, %.lr.ph.i
  %.sroa.011.014.i = phi ptr [ %10, %.lr.ph.i ], [ %4, %2 ]
  %7 = load ptr, ptr %.sroa.011.014.i, align 8
  %.not.i = icmp uge ptr %0, %7
  %8 = getelementptr inbounds nuw i8, ptr %7, i64 32400
  %9 = icmp ult ptr %0, %8
  %or.cond.i = select i1 %.not.i, i1 %9, i1 false
  %10 = getelementptr inbounds nuw i8, ptr %.sroa.011.014.i, i64 8
  %.not18.i = icmp eq ptr %10, %6
  %or.cond = select i1 %or.cond.i, i1 true, i1 %.not18.i
  br i1 %or.cond, label %_ZNK4Luau14TypedAllocatorINS_4TypeEE8containsEPKS1_.exit, label %.lr.ph.i

_ZNK4Luau14TypedAllocatorINS_4TypeEE8containsEPKS1_.exit: ; preds = %.lr.ph.i, %2
  %.lcssa.i = phi i1 [ false, %2 ], [ %or.cond.i, %.lr.ph.i ]
  ret i1 %.lcssa.i
}